target datalayout = "e-m:e-p270:32:32-p271:32:32-p272:64:64-i64:64-i128:128-f80:128-n8:16:32:64-S128"
target triple = "x86_64-pc-linux-gnu"

@stdout = external global ptr, align 8
@.str.34 = private unnamed_addr constant [36 x i8] c"\0AACCURACY at the final time   = %g\0A\00", align 1

; Function Attrs: nounwind uwtable
define internal i32 @compute_error(ptr noundef %0, double noundef %1) #0 {
  %3 = alloca ptr, align 8
  %4 = alloca double, align 8
  %5 = alloca double, align 8
  %6 = alloca double, align 8
  store ptr %0, ptr %3, align 8, !tbaa !10
  store double %1, ptr %4, align 8, !tbaa !4
  call void @llvm.lifetime.start.p0(i64 8, ptr %5) #5
  call void @llvm.lifetime.start.p0(i64 8, ptr %6) #5
  %7 = load double, ptr %4, align 8, !tbaa !4
  %8 = call double @atan(double noundef %7) #5, !tbaa !14
  store double %8, ptr %5, align 8, !tbaa !4
  %9 = load ptr, ptr %3, align 8, !tbaa !10
  %10 = call ptr @N_VGetArrayPointer(ptr noundef %9)
  %11 = getelementptr inbounds double, ptr %10, i64 0
  %12 = load double, ptr %11, align 8, !tbaa !4
  %13 = load double, ptr %5, align 8, !tbaa !4
  %14 = fsub double %12, %13
  %15 = call double @llvm.fabs.f64(double %14)
  store double %15, ptr %6, align 8, !tbaa !4
  %16 = load ptr, ptr @stdout, align 8, !tbaa !18
  %17 = load double, ptr %6, align 8, !tbaa !4
  %18 = call i32 (ptr, ptr, ...) @fprintf(ptr noundef %16, ptr noundef @.str.34, double noundef %17) #5
  call void @llvm.lifetime.end.p0(i64 8, ptr %6) #5
  call void @llvm.lifetime.end.p0(i64 8, ptr %5) #5
  ret i32 0
}