; Function Attrs: nounwind uwtable
define internal fastcc void @compute_error(ptr noundef %0, double noundef %1) unnamed_addr #0 {
  %3 = tail call double @atan(double noundef %1) #8, !tbaa !14
  %4 = tail call ptr @N_VGetArrayPointer(ptr noundef %0) #8
  %5 = load double, ptr %4, align 8, !tbaa !4
  %6 = fsub double %5, %3
  %7 = tail call double @llvm.fabs.f64(double %6)
  %8 = load ptr, ptr @stdout, align 8, !tbaa !8
  %9 = tail call i32 (ptr, ptr, ...) @fprintf(ptr noundef %8, ptr noundef nonnull @.str.34, double noundef %7) #8
  ret void
}